target datalayout = "e-m:e-p270:32:32-p271:32:32-p272:64:64-i64:64-i128:128-f80:128-n8:16:32:64-S128"
target triple = "x86_64-pc-linux-gnu"

%struct.tMPI_Atomic = type { i32, [60 x i8] }
%struct.tMPI_Thread_key_t = type { %struct.tMPI_Atomic, ptr }
%struct.tMPI_Thread_key = type { i32 }

; Function Attrs: mustprogress nounwind uwtable
define noundef i32 @_Z22tMPI_Thread_key_delete17tMPI_Thread_key_t(ptr noundef byval(%struct.tMPI_Thread_key_t) align 8 %0) #0 {
  %2 = alloca i32, align 4
  %3 = alloca i32, align 4
  %4 = getelementptr inbounds %struct.tMPI_Thread_key_t, ptr %0, i32 0, i32 1
  %5 = load ptr, ptr %4, align 8
  %6 = getelementptr inbounds %struct.tMPI_Thread_key, ptr %5, i32 0, i32 0
  %7 = load i32, ptr %6, align 4
  %8 = call i32 @pthread_key_delete(i32 noundef %7) #8
  store i32 %8, ptr %3, align 4
  %9 = load i32, ptr %3, align 4
  %10 = icmp ne i32 %9, 0
  br i1 %10, label %11, label %13

11:                                               ; preds = %1
  %12 = load i32, ptr %3, align 4
  store i32 %12, ptr %2, align 4
  br label %16

13:                                               ; preds = %1
  %14 = getelementptr inbounds %struct.tMPI_Thread_key_t, ptr %0, i32 0, i32 1
  %15 = load ptr, ptr %14, align 8
  call void @free(ptr noundef %15) #8
  store i32 0, ptr %2, align 4
  br label %16

16:                                               ; preds = %13, %11
  %17 = load i32, ptr %2, align 4
  ret i32 %17
}