; Function Attrs: mustprogress nounwind uwtable
define noundef i32 @_Z22tMPI_Thread_key_delete17tMPI_Thread_key_t(ptr nocapture noundef readonly byval(%struct.tMPI_Thread_key_t) align 8 %0) local_unnamed_addr #1 {
  %2 = getelementptr inbounds i8, ptr %0, i64 64
  %3 = load ptr, ptr %2, align 8
  %4 = load i32, ptr %3, align 4
  %5 = tail call i32 @pthread_key_delete(i32 noundef %4) #13
  %.not = icmp eq i32 %5, 0
  br i1 %.not, label %6, label %7

6:                                                ; preds = %1
  tail call void @free(ptr noundef nonnull %3) #13
  br label %7

7:                                                ; preds = %1, %6
  ret i32 %5
}